(lp0
(lp1
S'Pokemon Alchemist'
p2
aS'Completed'
p3
aS'No'
p4
ag4
aS'16/09/2016'
p5
aS'Alchemist.png'
p6
aa(lp7
S'Pokemon Attack On the Space Station'
p8
ag3
aS'Yes'
p9
ag4
aS'20/08/2017'
p10
aS'Attack On the Space Station.png'
p11
aa(lp12
S'Pokemon Celestite'
p13
aS'Developing'
p14
ag9
ag9
aS'21/01/2016'
p15
aS'Celestite.png'
p16
aa(lp17
S'Pokemon Clandestine'
p18
aS'Demo'
p19
ag4
ag4
aS'14/04/2017'
p20
aS'Clandestine.png'
p21
aa(lp22
S'Pokemon Comet'
p23
ag14
ag4
ag4
aS'12/08/2017'
p24
aS'Comet.png'
p25
aa(lp26
S'Pokemon Epitaph'
p27
ag14
ag9
ag4
aS'03/10/2017'
p28
aS'Epitaph.png'
p29
aa(lp30
S'Pokemon Ethereal Gates'
p31
ag19
ag9
ag4
aS'12/04/2015'
p32
aS'Ethereal Gates.png'
p33
aa(lp34
S'Pokemon Fable'
p35
ag3
ag4
ag4
aS'09/08/2017'
p36
aS'Fable.png'
p37
aa(lp38
S'Pokemon Infinite Fusion'
p39
ag19
ag9
ag4
aS'23/03/2017'
p40
aS'Infinite Fusion.png'
p41
aa(lp42
S'Pokemon Insurgence'
p43
ag3
ag9
ag9
aS'20/12/2014'
p44
aS'Insurgence.gif'
p45
aa(lp46
S'Pokemon Mint Fantasy'
p47
ag19
ag4
ag9
aS'30/06/2015'
p48
aS'Mint Fantasy.png'
p49
aa(lp50
S'Pokemon Morality'
p51
ag14
ag9
ag4
aS'12/10/2017'
p52
aS'Morality.png'
p53
aa(lp54
S'Pokemon Natural Green'
p55
ag19
ag4
ag9
aS'21/06/2015'
p56
aS'Natural Green.png'
p57
aa(lp58
S'Pokemon Nova'
p59
ag19
ag9
ag9
aS'23/04/2017'
p60
aS'Nova.png'
p61
aa(lp62
S'Pokemon Phoenix Rising'
p63
ag14
ag9
ag9
aS'24/06/2015'
p64
aS'Phoenix Rising.png'
p65
aa(lp66
S'Pokemon Reborn'
p67
ag19
ag4
ag9
aS'30/09/2012'
p68
aS'Reborn.png'
p69
aa(lp70
S'Pokemon Spectrum'
p71
ag19
ag9
ag4
aS'11/09/2015'
p72
aS'Spectrum.png'
p73
aa(lp74
S'Pokemon Titan'
p75
ag19
ag9
ag9
aS'26/06/2017'
p76
aS'Titan.png'
p77
aa(lp78
S'Pokemon Uranium'
p79
ag3
ag9
ag9
aS'17/04/2010'
p80
aS'Uranium.jpg'
p81
aa(lp82
S'Pokemon Virion'
p83
ag19
ag4
ag9
aS'18/11/2016'
p84
aS'Virion.png'
p85
aa.